target datalayout = "e-m:e-p270:32:32-p271:32:32-p272:64:64-i64:64-i128:128-f80:128-n8:16:32:64-S128"
target triple = "x86_64-pc-linux-gnu"

%struct.ProfileState = type { ptr, ptr, ptr, %struct.SBuf, i32, i32, i32, %struct.sigaction }
%struct.SBuf = type { ptr, ptr, ptr, %struct.MRef }
%struct.MRef = type { i64 }
%struct.sigaction = type { %union.anon, %struct.__sigset_t, i32, ptr }
%union.anon = type { ptr }
%struct.__sigset_t = type { [16 x i64] }
%struct.GCRef = type { i64 }
%struct.global_State = type { ptr, ptr, %struct.GCState, %struct.GCstr, i8, i8, i8, i8, %struct.StrInternState, i32, %struct.GCRef, %struct.SBuf, %union.TValue, %union.TValue, %struct.Node, %union.TValue, %struct.GCupval, i32, i32, ptr, ptr, ptr, i32, i32, %struct.GCRef, %struct.MRef, %struct.MRef, %struct.PRNGState, [39 x %struct.GCRef] }
%struct.GCState = type { i64, i64, i8, i8, i8, i8, i32, %struct.GCRef, %struct.MRef, %struct.GCRef, %struct.GCRef, %struct.GCRef, %struct.GCRef, i64, i64, i32, i32, %struct.MRef }
%struct.GCstr = type { %struct.GCRef, i8, i8, i8, i8, i32, i32, i32 }
%struct.StrInternState = type { ptr, i32, i32, i32, i8, i8, i8, i8, i64 }
%struct.Node = type { %union.TValue, %union.TValue, %struct.MRef }
%union.TValue = type { i64 }
%struct.GCupval = type { %struct.GCRef, i8, i8, i8, i8, %union.anon.1, %struct.MRef, i32 }
%union.anon.1 = type { %struct.anon.2 }
%struct.anon.2 = type { %struct.GCRef, %struct.GCRef }
%struct.PRNGState = type { [4 x i64] }

@profile_state = internal global %struct.ProfileState zeroinitializer, align 8

; Function Attrs: nounwind uwtable
define internal void @profile_trigger(ptr noundef %0) #0 {
  %2 = alloca ptr, align 8
  %3 = alloca ptr, align 8
  %4 = alloca i8, align 1
  %5 = alloca i32, align 4
  store ptr %0, ptr %2, align 8, !tbaa !9
  call void @llvm.lifetime.start.p0(i64 8, ptr %3) #5
  %6 = load ptr, ptr %2, align 8, !tbaa !9
  %7 = getelementptr inbounds nuw %struct.ProfileState, ptr %6, i32 0, i32 0
  %8 = load ptr, ptr %7, align 8, !tbaa !59
  store ptr %8, ptr %3, align 8, !tbaa !18
  call void @llvm.lifetime.start.p0(i64 1, ptr %4) #5
  %9 = load ptr, ptr %2, align 8, !tbaa !9
  %10 = getelementptr inbounds nuw %struct.ProfileState, ptr %9, i32 0, i32 5
  %11 = load i32, ptr %10, align 4, !tbaa !32
  %12 = add nsw i32 %11, 1
  store i32 %12, ptr %10, align 4, !tbaa !32
  %13 = load ptr, ptr %3, align 8, !tbaa !18
  %14 = getelementptr inbounds nuw %struct.global_State, ptr %13, i32 0, i32 5
  %15 = load i8, ptr %14, align 1, !tbaa !20
  store i8 %15, ptr %4, align 1, !tbaa !31
  %16 = load i8, ptr %4, align 1, !tbaa !31
  %17 = zext i8 %16 to i32
  %18 = and i32 %17, 224
  %19 = icmp ne i32 %18, 0
  br i1 %19, label %54, label %20

20:                                               ; preds = %1
  call void @llvm.lifetime.start.p0(i64 4, ptr %5) #5
  %21 = load ptr, ptr %3, align 8, !tbaa !18
  %22 = getelementptr inbounds nuw %struct.global_State, ptr %21, i32 0, i32 9
  %23 = load volatile i32, ptr %22, align 8, !tbaa !79
  store i32 %23, ptr %5, align 4, !tbaa !36
  %24 = load i32, ptr %5, align 4, !tbaa !36
  %25 = icmp sge i32 %24, 0
  br i1 %25, label %26, label %27

26:                                               ; preds = %20
  br label %43

27:                                               ; preds = %20
  %28 = load i32, ptr %5, align 4, !tbaa !36
  %29 = icmp eq i32 %28, -1
  br i1 %29, label %30, label %31

30:                                               ; preds = %27
  br label %41

31:                                               ; preds = %27
  %32 = load i32, ptr %5, align 4, !tbaa !36
  %33 = icmp eq i32 %32, -2
  br i1 %33, label %34, label %35

34:                                               ; preds = %31
  br label %39

35:                                               ; preds = %31
  %36 = load i32, ptr %5, align 4, !tbaa !36
  %37 = icmp eq i32 %36, -3
  %38 = select i1 %37, i32 71, i32 74
  br label %39

39:                                               ; preds = %35, %34
  %40 = phi i32 [ 67, %34 ], [ %38, %35 ]
  br label %41

41:                                               ; preds = %39, %30
  %42 = phi i32 [ 73, %30 ], [ %40, %39 ]
  br label %43

43:                                               ; preds = %41, %26
  %44 = phi i32 [ 78, %26 ], [ %42, %41 ]
  %45 = load ptr, ptr %2, align 8, !tbaa !9
  %46 = getelementptr inbounds nuw %struct.ProfileState, ptr %45, i32 0, i32 6
  store i32 %44, ptr %46, align 8, !tbaa !39
  %47 = load i8, ptr %4, align 1, !tbaa !31
  %48 = zext i8 %47 to i32
  %49 = or i32 %48, 128
  %50 = trunc i32 %49 to i8
  %51 = load ptr, ptr %3, align 8, !tbaa !18
  %52 = getelementptr inbounds nuw %struct.global_State, ptr %51, i32 0, i32 5
  store i8 %50, ptr %52, align 1, !tbaa !20
  %53 = load ptr, ptr %3, align 8, !tbaa !18
  call void @lj_dispatch_update(ptr noundef %53)
  call void @llvm.lifetime.end.p0(i64 4, ptr %5) #5
  br label %54

54:                                               ; preds = %43, %1
  call void @llvm.lifetime.end.p0(i64 1, ptr %4) #5
  call void @llvm.lifetime.end.p0(i64 8, ptr %3) #5
  ret void
}

; Function Attrs: nounwind uwtable
define internal void @profile_signal(i32 noundef %0) #0 {
  %2 = alloca i32, align 4
  store i32 %0, ptr %2, align 4, !tbaa !36
  call void @profile_trigger(ptr noundef @profile_state)
  ret void
}