; Function Attrs: nounwind uwtable
define internal void @profile_signal(i32 %0) #0 {
  %2 = load ptr, ptr @profile_state, align 8, !tbaa !52
  %3 = load i32, ptr getelementptr inbounds nuw (i8, ptr @profile_state, i64 60), align 4, !tbaa !25
  %4 = add nsw i32 %3, 1
  store i32 %4, ptr getelementptr inbounds nuw (i8, ptr @profile_state, i64 60), align 4, !tbaa !25
  %5 = getelementptr inbounds nuw i8, ptr %2, i64 145
  %6 = load i8, ptr %5, align 1, !tbaa !14
  %.not.i = icmp ult i8 %6, 32
  br i1 %.not.i, label %7, label %profile_trigger.exit

7:                                                ; preds = %1
  %8 = getelementptr inbounds nuw i8, ptr %2, i64 184
  %9 = load volatile i32, ptr %8, align 8, !tbaa !69
  %10 = icmp sgt i32 %9, -1
  br i1 %10, label %18, label %11

11:                                               ; preds = %7
  %12 = icmp eq i32 %9, -1
  br i1 %12, label %18, label %13

13:                                               ; preds = %11
  %14 = icmp eq i32 %9, -2
  %15 = icmp eq i32 %9, -3
  %16 = select i1 %15, i32 71, i32 74
  %17 = select i1 %14, i32 67, i32 %16
  br label %18

18:                                               ; preds = %13, %11, %7
  %19 = phi i32 [ 78, %7 ], [ %17, %13 ], [ 73, %11 ]
  store i32 %19, ptr getelementptr inbounds nuw (i8, ptr @profile_state, i64 64), align 8, !tbaa !32
  %20 = or disjoint i8 %6, -128
  store i8 %20, ptr %5, align 1, !tbaa !14
  tail call void @lj_dispatch_update(ptr noundef nonnull %2) #7
  br label %profile_trigger.exit

profile_trigger.exit:                             ; preds = %1, %18
  ret void
}